(lp0
ccollections
OrderedDict
p1
((lp2
(lp3
S'Name'
p4
aS'Jonathan Gatliff'
p5
aa(lp6
S'Address'
p7
aS'31 Fitzroy Street MOUNT CLEAR VIC 3350'
p8
aa(lp9
S'Phone'
p10
aS'(03) 5325 7220'
p11
aatp12
Rp13
ag1
((lp14
(lp15
g4
aS'Natalie Serra'
p16
aa(lp17
g7
aS'29 Insignia Way BOULDER WA 6432'
p18
aa(lp19
g10
aS'(08) 9047 1739'
p20
aatp21
Rp22
ag1
((lp23
(lp24
g4
aS'Ben Elmslie'
p25
aa(lp26
g7
aS'90 Glen William Road BRAMSTON BEACH QLD 4871'
p27
aa(lp28
g10
aS'(07) 4082 5291'
p29
aatp30
Rp31
ag1
((lp32
(lp33
g4
aS'Lilian Mahon'
p34
aa(lp35
g7
aS'67 Shaw Drive TIMOR WEST VIC 3465'
p36
aa(lp37
g10
aS'(03) 5394 8585'
p38
aatp39
Rp40
ag1
((lp41
(lp42
g4
aS'Leah Snider'
p43
aa(lp44
g7
aS'23 Ulomogo Street OLD HARBOUR NSW 2830'
p45
aa(lp46
g10
aS'(02) 4055 6933'
p47
aatp48
Rp49
a.